; Function Attrs: mustprogress nofree norecurse nosync nounwind willreturn memory(read, inaccessiblemem: none) uwtable
define hidden ptr @b2GetBodyState(ptr noundef readonly captures(none) %0, ptr noundef readonly captures(none) %1) local_unnamed_addr #4 {
  %3 = getelementptr inbounds nuw i8, ptr %1, i64 40
  %4 = load i32, ptr %3, align 8, !tbaa !19
  %5 = icmp eq i32 %4, 2
  br i1 %5, label %6, label %13

6:                                                ; preds = %2
  %7 = getelementptr inbounds nuw i8, ptr %0, i64 1072
  %.val = load ptr, ptr %7, align 8, !tbaa !24
  %8 = getelementptr inbounds nuw i8, ptr %.val, i64 192
  %9 = getelementptr inbounds nuw i8, ptr %1, i64 44
  %10 = load i32, ptr %9, align 4, !tbaa !27
  %.val5 = load ptr, ptr %8, align 8, !tbaa !18
  %11 = sext i32 %10 to i64
  %12 = getelementptr inbounds %struct.b2BodyState, ptr %.val5, i64 %11
  br label %13

13:                                               ; preds = %2, %6
  %.0 = phi ptr [ %12, %6 ], [ null, %2 ]
  ret ptr %.0
}